target datalayout = "e-m:e-p270:32:32-p271:32:32-p272:64:64-i64:64-i128:128-f80:128-n8:16:32:64-S128"
target triple = "x86_64-pc-linux-gnu"

%class.obj_hashtable = type { %class.core_hashtable.base, [4 x i8] }
%class.core_hashtable.base = type <{ ptr, i32, i32, i32 }>
%class.ptr_vector.38 = type { %class.vector.39 }
%class.vector.39 = type { ptr }
%class.obj_ref = type { ptr, ptr }
%class.obj_ref.42 = type { ptr, ptr }
%class.ref_vector = type { %class.ref_vector_core }
%class.ref_vector_core = type { %class.ref_manager_wrapper, %class.ptr_vector.33 }
%class.ref_manager_wrapper = type { ptr }
%class.ptr_vector.33 = type { %class.vector.34 }
%class.vector.34 = type { ptr }
%class.ref_vector.35 = type { %class.ref_vector_core.36 }
%class.ref_vector_core.36 = type { %class.ref_manager_wrapper.37, %class.ptr_vector.38 }
%class.ref_manager_wrapper.37 = type { ptr }
%class.rewriter_core = type { ptr, ptr, i8, i8, %class.ptr_vector.29, ptr, %class.svector.31, %class.ref_vector, %class.ptr_vector.29, ptr, %class.ref_vector.35, %class.obj_hashtable, ptr, i32, %class.svector.40 }
%class.svector.31 = type { %class.vector.32 }
%class.vector.32 = type { ptr }
%class.ptr_vector.29 = type { %class.vector.30 }
%class.vector.30 = type { ptr }
%class.svector.40 = type { %class.vector.41 }
%class.vector.41 = type { ptr }
%class.rewriter_tpl = type { %class.rewriter_core, ptr, i32, %class.ptr_vector.33, %class.var_shifter, %class.inv_var_shifter, %class.obj_ref, %class.obj_ref.42, %class.obj_ref.42, %class.svector.20 }
%class.var_shifter = type <{ %class.var_shifter_core, i32, i32, i32, [4 x i8] }>
%class.var_shifter_core = type { %class.rewriter_core }
%class.inv_var_shifter = type <{ %class.var_shifter_core, i32, [4 x i8] }>
%class.svector.20 = type { %class.vector.21 }
%class.vector.21 = type { ptr }

; Function Attrs: mustprogress nounwind uwtable
define linkonce_odr hidden void @_ZN6vectorIjLb0EjE5resetEv(ptr noundef nonnull align 8 dereferenceable(8) %0) #6 comdat align 2 {
  %2 = alloca ptr, align 8
  store ptr %0, ptr %2, align 8, !tbaa !346
  %3 = load ptr, ptr %2, align 8
  %4 = getelementptr inbounds nuw %class.vector.21, ptr %3, i32 0, i32 0
  %5 = load ptr, ptr %4, align 8, !tbaa !348
  %6 = icmp ne ptr %5, null
  br i1 %6, label %7, label %11

7:                                                ; preds = %1
  %8 = getelementptr inbounds nuw %class.vector.21, ptr %3, i32 0, i32 0
  %9 = load ptr, ptr %8, align 8, !tbaa !348
  %10 = getelementptr inbounds i32, ptr %9, i64 -1
  store i32 0, ptr %10, align 4, !tbaa !37
  br label %11

11:                                               ; preds = %7, %1
  ret void
}

; Function Attrs: mustprogress nounwind uwtable
define linkonce_odr hidden void @_ZN6vectorIP4exprLb0EjE5resetEv(ptr noundef nonnull align 8 dereferenceable(8) %0) #6 comdat align 2 {
  %2 = alloca ptr, align 8
  store ptr %0, ptr %2, align 8, !tbaa !341
  %3 = load ptr, ptr %2, align 8
  %4 = getelementptr inbounds nuw %class.vector.34, ptr %3, i32 0, i32 0
  %5 = load ptr, ptr %4, align 8, !tbaa !343
  %6 = icmp ne ptr %5, null
  br i1 %6, label %7, label %11

7:                                                ; preds = %1
  %8 = getelementptr inbounds nuw %class.vector.34, ptr %3, i32 0, i32 0
  %9 = load ptr, ptr %8, align 8, !tbaa !343
  %10 = getelementptr inbounds i32, ptr %9, i64 -1
  store i32 0, ptr %10, align 4, !tbaa !37
  br label %11

11:                                               ; preds = %7, %1
  ret void
}

; Function Attrs: mustprogress nounwind uwtable
define linkonce_odr hidden void @_ZN20default_rewriter_cfg5resetEv(ptr noundef nonnull align 1 dereferenceable(1) %0) #6 comdat align 2 {
  %2 = alloca ptr, align 8
  store ptr %0, ptr %2, align 8, !tbaa !531
  ret void
}

; Function Attrs: mustprogress uwtable
define internal void @_ZN12rewriter_tplIN12_GLOBAL__N_119elim_uncnstr_tactic6rw_cfgEE5resetEv(ptr noundef nonnull align 8 dereferenceable(536) %0) #4 align 2 {
  %2 = alloca ptr, align 8
  store ptr %0, ptr %2, align 8, !tbaa !187
  %3 = load ptr, ptr %2, align 8
  %4 = getelementptr inbounds nuw %class.rewriter_tpl, ptr %3, i32 0, i32 1
  %5 = load ptr, ptr %4, align 8, !tbaa !215
  call void @_ZN20default_rewriter_cfg5resetEv(ptr noundef nonnull align 1 dereferenceable(1) %5)
  call void @_ZN13rewriter_core5resetEv(ptr noundef nonnull align 8 dereferenceable(144) %3)
  %6 = getelementptr inbounds nuw %class.rewriter_tpl, ptr %3, i32 0, i32 3
  call void @_ZN6vectorIP4exprLb0EjE5resetEv(ptr noundef nonnull align 8 dereferenceable(8) %6)
  %7 = getelementptr inbounds nuw %class.rewriter_tpl, ptr %3, i32 0, i32 9
  call void @_ZN6vectorIjLb0EjE5resetEv(ptr noundef nonnull align 8 dereferenceable(8) %7)
  %8 = getelementptr inbounds nuw %class.rewriter_tpl, ptr %3, i32 0, i32 4
  call void @_ZN13rewriter_core5resetEv(ptr noundef nonnull align 8 dereferenceable(144) %8)
  %9 = getelementptr inbounds nuw %class.rewriter_tpl, ptr %3, i32 0, i32 5
  call void @_ZN13rewriter_core5resetEv(ptr noundef nonnull align 8 dereferenceable(144) %9)
  ret void
}